target datalayout = "e-m:e-p270:32:32-p271:32:32-p272:64:64-i64:64-i128:128-f80:128-n8:16:32:64-S128"
target triple = "x86_64-pc-linux-gnu"

@fixed_exp_table = internal constant [7 x i32] [i32 1073741824, i32 357913941, i32 89478485, i32 17895697, i32 2982616, i32 426088, i32 53261], align 16
@fixed_log_table = internal constant [10 x i32] [i32 1073741824, i32 715827883, i32 536870912, i32 429496730, i32 357913941, i32 306783378, i32 268435456, i32 238609294, i32 214748365, i32 195225786], align 16

; Function Attrs: nounwind uwtable
define internal i32 @fixed_exp(i32 noundef %0) #3 {
  %2 = alloca i32, align 4
  %3 = alloca i32, align 4
  %4 = alloca i32, align 4
  %5 = alloca i32, align 4
  %6 = alloca i32, align 4
  store i32 %0, ptr %2, align 4, !tbaa !12
  call void @llvm.lifetime.start.p0(i64 4, ptr %3) #13
  call void @llvm.lifetime.start.p0(i64 4, ptr %4) #13
  call void @llvm.lifetime.start.p0(i64 4, ptr %5) #13
  call void @llvm.lifetime.start.p0(i64 4, ptr %6) #13
  %7 = load i32, ptr %2, align 4, !tbaa !12
  %8 = add nsw i32 8388608, %7
  store i32 %8, ptr %4, align 4, !tbaa !12
  %9 = load i32, ptr %2, align 4, !tbaa !12
  store i32 %9, ptr %5, align 4, !tbaa !12
  store i32 0, ptr %3, align 4, !tbaa !12
  br label %10

10:                                               ; preds = %36, %1
  %11 = load i32, ptr %3, align 4, !tbaa !12
  %12 = icmp slt i32 %11, 7
  br i1 %12, label %13, label %39

13:                                               ; preds = %10
  %14 = load i32, ptr %5, align 4, !tbaa !12
  %15 = sext i32 %14 to i64
  %16 = load i32, ptr %2, align 4, !tbaa !12
  %17 = sext i32 %16 to i64
  %18 = mul nsw i64 %15, %17
  %19 = add nsw i64 %18, 4194304
  %20 = ashr i64 %19, 23
  %21 = trunc i64 %20 to i32
  store i32 %21, ptr %5, align 4, !tbaa !12
  %22 = load i32, ptr %5, align 4, !tbaa !12
  %23 = sext i32 %22 to i64
  %24 = load i32, ptr %3, align 4, !tbaa !12
  %25 = sext i32 %24 to i64
  %26 = getelementptr inbounds [7 x i32], ptr @fixed_exp_table, i64 0, i64 %25
  %27 = load i32, ptr %26, align 4, !tbaa !12
  %28 = sext i32 %27 to i64
  %29 = mul nsw i64 %23, %28
  %30 = add nsw i64 %29, 1073741824
  %31 = ashr i64 %30, 31
  %32 = trunc i64 %31 to i32
  store i32 %32, ptr %6, align 4, !tbaa !12
  %33 = load i32, ptr %6, align 4, !tbaa !12
  %34 = load i32, ptr %4, align 4, !tbaa !12
  %35 = add nsw i32 %34, %33
  store i32 %35, ptr %4, align 4, !tbaa !12
  br label %36

36:                                               ; preds = %13
  %37 = load i32, ptr %3, align 4, !tbaa !12
  %38 = add nsw i32 %37, 1
  store i32 %38, ptr %3, align 4, !tbaa !12
  br label %10, !llvm.loop !233

39:                                               ; preds = %10
  %40 = load i32, ptr %4, align 4, !tbaa !12
  call void @llvm.lifetime.end.p0(i64 4, ptr %6) #13
  call void @llvm.lifetime.end.p0(i64 4, ptr %5) #13
  call void @llvm.lifetime.end.p0(i64 4, ptr %4) #13
  call void @llvm.lifetime.end.p0(i64 4, ptr %3) #13
  ret i32 %40
}

; Function Attrs: nounwind uwtable
define internal i32 @fixed_log(i32 noundef %0) #3 {
  %2 = alloca i32, align 4
  %3 = alloca i32, align 4
  %4 = alloca i32, align 4
  %5 = alloca i32, align 4
  %6 = alloca i32, align 4
  store i32 %0, ptr %2, align 4, !tbaa !12
  call void @llvm.lifetime.start.p0(i64 4, ptr %3) #13
  call void @llvm.lifetime.start.p0(i64 4, ptr %4) #13
  call void @llvm.lifetime.start.p0(i64 4, ptr %5) #13
  call void @llvm.lifetime.start.p0(i64 4, ptr %6) #13
  %7 = load i32, ptr %2, align 4, !tbaa !12
  store i32 %7, ptr %4, align 4, !tbaa !12
  %8 = load i32, ptr %2, align 4, !tbaa !12
  store i32 %8, ptr %5, align 4, !tbaa !12
  store i32 0, ptr %3, align 4, !tbaa !12
  br label %9

9:                                                ; preds = %58, %1
  %10 = load i32, ptr %3, align 4, !tbaa !12
  %11 = icmp slt i32 %10, 10
  br i1 %11, label %12, label %61

12:                                               ; preds = %9
  %13 = load i32, ptr %5, align 4, !tbaa !12
  %14 = sext i32 %13 to i64
  %15 = load i32, ptr %2, align 4, !tbaa !12
  %16 = sext i32 %15 to i64
  %17 = mul nsw i64 %14, %16
  %18 = add nsw i64 %17, 1073741824
  %19 = ashr i64 %18, 31
  %20 = trunc i64 %19 to i32
  store i32 %20, ptr %5, align 4, !tbaa !12
  %21 = load i32, ptr %5, align 4, !tbaa !12
  %22 = sext i32 %21 to i64
  %23 = load i32, ptr %3, align 4, !tbaa !12
  %24 = sext i32 %23 to i64
  %25 = getelementptr inbounds [10 x i32], ptr @fixed_log_table, i64 0, i64 %24
  %26 = load i32, ptr %25, align 4, !tbaa !12
  %27 = sext i32 %26 to i64
  %28 = mul nsw i64 %22, %27
  %29 = add nsw i64 %28, 1073741824
  %30 = ashr i64 %29, 31
  %31 = trunc i64 %30 to i32
  store i32 %31, ptr %6, align 4, !tbaa !12
  %32 = load i32, ptr %6, align 4, !tbaa !12
  %33 = load i32, ptr %4, align 4, !tbaa !12
  %34 = sub nsw i32 %33, %32
  store i32 %34, ptr %4, align 4, !tbaa !12
  %35 = load i32, ptr %5, align 4, !tbaa !12
  %36 = sext i32 %35 to i64
  %37 = load i32, ptr %2, align 4, !tbaa !12
  %38 = sext i32 %37 to i64
  %39 = mul nsw i64 %36, %38
  %40 = add nsw i64 %39, 1073741824
  %41 = ashr i64 %40, 31
  %42 = trunc i64 %41 to i32
  store i32 %42, ptr %5, align 4, !tbaa !12
  %43 = load i32, ptr %5, align 4, !tbaa !12
  %44 = sext i32 %43 to i64
  %45 = load i32, ptr %3, align 4, !tbaa !12
  %46 = add nsw i32 %45, 1
  %47 = sext i32 %46 to i64
  %48 = getelementptr inbounds [10 x i32], ptr @fixed_log_table, i64 0, i64 %47
  %49 = load i32, ptr %48, align 4, !tbaa !12
  %50 = sext i32 %49 to i64
  %51 = mul nsw i64 %44, %50
  %52 = add nsw i64 %51, 1073741824
  %53 = ashr i64 %52, 31
  %54 = trunc i64 %53 to i32
  store i32 %54, ptr %6, align 4, !tbaa !12
  %55 = load i32, ptr %6, align 4, !tbaa !12
  %56 = load i32, ptr %4, align 4, !tbaa !12
  %57 = add nsw i32 %56, %55
  store i32 %57, ptr %4, align 4, !tbaa !12
  br label %58

58:                                               ; preds = %12
  %59 = load i32, ptr %3, align 4, !tbaa !12
  %60 = add nsw i32 %59, 2
  store i32 %60, ptr %3, align 4, !tbaa !12
  br label %9, !llvm.loop !231

61:                                               ; preds = %9
  %62 = load i32, ptr %4, align 4, !tbaa !12
  call void @llvm.lifetime.end.p0(i64 4, ptr %6) #13
  call void @llvm.lifetime.end.p0(i64 4, ptr %5) #13
  call void @llvm.lifetime.end.p0(i64 4, ptr %4) #13
  call void @llvm.lifetime.end.p0(i64 4, ptr %3) #13
  ret i32 %62
}

; Function Attrs: nounwind uwtable
define internal void @make_bands(ptr noundef %0, i32 noundef %1, i32 noundef %2, i32 noundef %3) #3 {
  %5 = alloca ptr, align 8
  %6 = alloca i32, align 4
  %7 = alloca i32, align 4
  %8 = alloca i32, align 4
  %9 = alloca i32, align 4
  %10 = alloca i32, align 4
  %11 = alloca i32, align 4
  %12 = alloca i32, align 4
  %13 = alloca i32, align 4
  %14 = alloca i32, align 4
  store ptr %0, ptr %5, align 8, !tbaa !142
  store i32 %1, ptr %6, align 4, !tbaa !12
  store i32 %2, ptr %7, align 4, !tbaa !12
  store i32 %3, ptr %8, align 4, !tbaa !12
  call void @llvm.lifetime.start.p0(i64 4, ptr %9) #13
  call void @llvm.lifetime.start.p0(i64 4, ptr %10) #13
  call void @llvm.lifetime.start.p0(i64 4, ptr %11) #13
  call void @llvm.lifetime.start.p0(i64 4, ptr %12) #13
  call void @llvm.lifetime.start.p0(i64 4, ptr %13) #13
  call void @llvm.lifetime.start.p0(i64 4, ptr %14) #13
  store i32 0, ptr %14, align 4, !tbaa !12
  %15 = load i32, ptr %7, align 4, !tbaa !12
  %16 = shl i32 %15, 23
  %17 = load i32, ptr %6, align 4, !tbaa !12
  %18 = sdiv i32 %16, %17
  store i32 %18, ptr %12, align 4, !tbaa !12
  br label %19

19:                                               ; preds = %22, %4
  %20 = load i32, ptr %12, align 4, !tbaa !12
  %21 = icmp slt i32 %20, 1073741824
  br i1 %21, label %22, label %27

22:                                               ; preds = %19
  %23 = load i32, ptr %12, align 4, !tbaa !12
  %24 = shl i32 %23, 1
  store i32 %24, ptr %12, align 4, !tbaa !12
  %25 = load i32, ptr %14, align 4, !tbaa !12
  %26 = add nsw i32 %25, 1
  store i32 %26, ptr %14, align 4, !tbaa !12
  br label %19, !llvm.loop !228

27:                                               ; preds = %19
  %28 = load i32, ptr %12, align 4, !tbaa !12
  %29 = sub i32 %28, -2147483648
  %30 = call i32 @fixed_log(i32 noundef %29)
  store i32 %30, ptr %12, align 4, !tbaa !12
  %31 = load i32, ptr %12, align 4, !tbaa !12
  %32 = add nsw i32 %31, 128
  %33 = ashr i32 %32, 8
  %34 = load i32, ptr %14, align 4, !tbaa !12
  %35 = sub nsw i32 8, %34
  %36 = mul nsw i32 %35, 5814540
  %37 = add nsw i32 %33, %36
  %38 = load i32, ptr %8, align 4, !tbaa !12
  %39 = sdiv i32 %37, %38
  store i32 %39, ptr %12, align 4, !tbaa !12
  %40 = load i32, ptr %12, align 4, !tbaa !12
  %41 = call i32 @fixed_exp(i32 noundef %40)
  store i32 %41, ptr %12, align 4, !tbaa !12
  %42 = load i32, ptr %6, align 4, !tbaa !12
  store i32 %42, ptr %10, align 4, !tbaa !12
  %43 = load i32, ptr %6, align 4, !tbaa !12
  %44 = shl i32 %43, 23
  store i32 %44, ptr %13, align 4, !tbaa !12
  store i32 0, ptr %9, align 4, !tbaa !12
  br label %45

45:                                               ; preds = %71, %27
  %46 = load i32, ptr %9, align 4, !tbaa !12
  %47 = load i32, ptr %8, align 4, !tbaa !12
  %48 = sub nsw i32 %47, 1
  %49 = icmp slt i32 %46, %48
  br i1 %49, label %50, label %74

50:                                               ; preds = %45
  %51 = load i32, ptr %13, align 4, !tbaa !12
  %52 = sext i32 %51 to i64
  %53 = load i32, ptr %12, align 4, !tbaa !12
  %54 = sext i32 %53 to i64
  %55 = mul nsw i64 %52, %54
  %56 = add nsw i64 %55, 4194304
  %57 = ashr i64 %56, 23
  %58 = trunc i64 %57 to i32
  store i32 %58, ptr %13, align 4, !tbaa !12
  %59 = load i32, ptr %13, align 4, !tbaa !12
  %60 = add nsw i32 %59, 4194304
  %61 = ashr i32 %60, 23
  store i32 %61, ptr %11, align 4, !tbaa !12
  %62 = load i32, ptr %11, align 4, !tbaa !12
  %63 = load i32, ptr %10, align 4, !tbaa !12
  %64 = sub nsw i32 %62, %63
  %65 = trunc i32 %64 to i16
  %66 = load ptr, ptr %5, align 8, !tbaa !142
  %67 = load i32, ptr %9, align 4, !tbaa !12
  %68 = sext i32 %67 to i64
  %69 = getelementptr inbounds i16, ptr %66, i64 %68
  store i16 %65, ptr %69, align 2, !tbaa !137
  %70 = load i32, ptr %11, align 4, !tbaa !12
  store i32 %70, ptr %10, align 4, !tbaa !12
  br label %71

71:                                               ; preds = %50
  %72 = load i32, ptr %9, align 4, !tbaa !12
  %73 = add nsw i32 %72, 1
  store i32 %73, ptr %9, align 4, !tbaa !12
  br label %45, !llvm.loop !229

74:                                               ; preds = %45
  %75 = load i32, ptr %7, align 4, !tbaa !12
  %76 = load i32, ptr %10, align 4, !tbaa !12
  %77 = sub nsw i32 %75, %76
  %78 = trunc i32 %77 to i16
  %79 = load ptr, ptr %5, align 8, !tbaa !142
  %80 = load i32, ptr %8, align 4, !tbaa !12
  %81 = sub nsw i32 %80, 1
  %82 = sext i32 %81 to i64
  %83 = getelementptr inbounds i16, ptr %79, i64 %82
  store i16 %78, ptr %83, align 2, !tbaa !137
  call void @llvm.lifetime.end.p0(i64 4, ptr %14) #13
  call void @llvm.lifetime.end.p0(i64 4, ptr %13) #13
  call void @llvm.lifetime.end.p0(i64 4, ptr %12) #13
  call void @llvm.lifetime.end.p0(i64 4, ptr %11) #13
  call void @llvm.lifetime.end.p0(i64 4, ptr %10) #13
  call void @llvm.lifetime.end.p0(i64 4, ptr %9) #13
  ret void
}