; Function Attrs: nofree norecurse nosync nounwind memory(argmem: write) uwtable
define internal fastcc void @make_bands(ptr noundef nonnull writeonly captures(none) %0, i32 noundef %1, i32 noundef %2, i32 noundef range(i32 -512, -2147483648) %3) unnamed_addr #8 {
  %5 = shl i32 %2, 23
  %6 = sdiv i32 %5, %1
  %7 = icmp slt i32 %6, 1073741824
  br i1 %7, label %.lr.ph, label %._crit_edge

.lr.ph:                                           ; preds = %4, %.lr.ph
  %.037 = phi i32 [ %9, %.lr.ph ], [ 0, %4 ]
  %.02736 = phi i32 [ %8, %.lr.ph ], [ %6, %4 ]
  %8 = shl i32 %.02736, 1
  %9 = add nuw nsw i32 %.037, 1
  %10 = icmp slt i32 %8, 1073741824
  br i1 %10, label %.lr.ph, label %._crit_edge.loopexit, !llvm.loop !218

._crit_edge.loopexit:                             ; preds = %.lr.ph
  %11 = sub nsw i32 7, %.037
  %12 = mul nsw i32 %11, 5814540
  br label %._crit_edge

._crit_edge:                                      ; preds = %._crit_edge.loopexit, %4
  %.027.lcssa = phi i32 [ %6, %4 ], [ %8, %._crit_edge.loopexit ]
  %.0.lcssa = phi i32 [ 46516320, %4 ], [ %12, %._crit_edge.loopexit ]
  %13 = or disjoint i32 %.027.lcssa, -2147483648
  %14 = sext i32 %13 to i64
  br label %15

15:                                               ; preds = %15, %._crit_edge
  %indvars.iv.i = phi i64 [ 0, %._crit_edge ], [ %indvars.iv.next.i, %15 ]
  %.01720.i = phi i32 [ %13, %._crit_edge ], [ %32, %15 ]
  %.01819.i = phi i32 [ %13, %._crit_edge ], [ %42, %15 ]
  %16 = sext i32 %.01720.i to i64
  %17 = mul nsw i64 %16, %14
  %18 = add nuw nsw i64 %17, 1073741824
  %19 = lshr i64 %18, 31
  %20 = and i64 %19, 4294967295
  %21 = getelementptr inbounds nuw [10 x i32], ptr @fixed_log_table, i64 0, i64 %indvars.iv.i
  %22 = load i32, ptr %21, align 8, !tbaa !10
  %23 = sext i32 %22 to i64
  %24 = mul nsw i64 %20, %23
  %25 = add nsw i64 %24, 1073741824
  %26 = lshr i64 %25, 31
  %27 = trunc i64 %26 to i32
  %28 = sub i32 %.01819.i, %27
  %29 = mul nsw i64 %20, %14
  %30 = add nsw i64 %29, 1073741824
  %31 = lshr i64 %30, 31
  %32 = trunc i64 %31 to i32
  %sext.i = shl i64 %31, 32
  %33 = ashr exact i64 %sext.i, 32
  %34 = or disjoint i64 %indvars.iv.i, 1
  %35 = getelementptr inbounds nuw [10 x i32], ptr @fixed_log_table, i64 0, i64 %34
  %36 = load i32, ptr %35, align 4, !tbaa !10
  %37 = sext i32 %36 to i64
  %38 = mul nsw i64 %33, %37
  %39 = add nsw i64 %38, 1073741824
  %40 = lshr i64 %39, 31
  %41 = trunc i64 %40 to i32
  %42 = add nsw i32 %28, %41
  %indvars.iv.next.i = add nuw nsw i64 %indvars.iv.i, 2
  %43 = icmp samesign ult i64 %indvars.iv.i, 8
  br i1 %43, label %15, label %fixed_log.exit, !llvm.loop !86

fixed_log.exit:                                   ; preds = %15
  %44 = add nsw i32 %42, 128
  %45 = ashr i32 %44, 8
  %46 = add nsw i32 %45, %.0.lcssa
  %47 = sdiv i32 %46, %3
  %48 = add nsw i32 %47, 8388608
  %49 = sext i32 %47 to i64
  br label %50

50:                                               ; preds = %50, %fixed_log.exit
  %indvars.iv.i31 = phi i64 [ 0, %fixed_log.exit ], [ %indvars.iv.next.i33, %50 ]
  %.01114.i = phi i32 [ %47, %fixed_log.exit ], [ %55, %50 ]
  %.01213.i = phi i32 [ %48, %fixed_log.exit ], [ %64, %50 ]
  %51 = sext i32 %.01114.i to i64
  %52 = mul nsw i64 %51, %49
  %53 = add nsw i64 %52, 4194304
  %54 = lshr i64 %53, 23
  %55 = trunc i64 %54 to i32
  %sext.i32 = shl i64 %54, 32
  %56 = ashr exact i64 %sext.i32, 32
  %57 = getelementptr inbounds nuw [7 x i32], ptr @fixed_exp_table, i64 0, i64 %indvars.iv.i31
  %58 = load i32, ptr %57, align 4, !tbaa !10
  %59 = sext i32 %58 to i64
  %60 = mul nsw i64 %56, %59
  %61 = add nsw i64 %60, 1073741824
  %62 = lshr i64 %61, 31
  %63 = trunc i64 %62 to i32
  %64 = add nsw i32 %.01213.i, %63
  %indvars.iv.next.i33 = add nuw nsw i64 %indvars.iv.i31, 1
  %exitcond.not.i = icmp eq i64 %indvars.iv.next.i33, 7
  br i1 %exitcond.not.i, label %fixed_exp.exit, label %50, !llvm.loop !219

fixed_exp.exit:                                   ; preds = %50
  %65 = add nsw i32 %3, -1
  %66 = icmp sgt i32 %3, 1
  br i1 %66, label %.lr.ph42, label %._crit_edge43

.lr.ph42:                                         ; preds = %fixed_exp.exit
  %67 = shl i32 %1, 23
  %68 = sext i32 %64 to i64
  %wide.trip.count = zext nneg i32 %65 to i64
  br label %69

69:                                               ; preds = %.lr.ph42, %69
  %indvars.iv = phi i64 [ 0, %.lr.ph42 ], [ %indvars.iv.next, %69 ]
  %.02641 = phi i32 [ %67, %.lr.ph42 ], [ %74, %69 ]
  %.02939 = phi i32 [ %1, %.lr.ph42 ], [ %76, %69 ]
  %70 = sext i32 %.02641 to i64
  %71 = mul nsw i64 %70, %68
  %72 = add nsw i64 %71, 4194304
  %73 = lshr i64 %72, 23
  %74 = trunc i64 %73 to i32
  %75 = add nsw i32 %74, 4194304
  %76 = ashr i32 %75, 23
  %77 = sub nsw i32 %76, %.02939
  %78 = trunc i32 %77 to i16
  %79 = getelementptr inbounds nuw i16, ptr %0, i64 %indvars.iv
  store i16 %78, ptr %79, align 2, !tbaa !72
  %indvars.iv.next = add nuw nsw i64 %indvars.iv, 1
  %exitcond.not = icmp eq i64 %indvars.iv.next, %wide.trip.count
  br i1 %exitcond.not, label %._crit_edge43, label %69, !llvm.loop !220

._crit_edge43:                                    ; preds = %69, %fixed_exp.exit
  %.029.lcssa = phi i32 [ %1, %fixed_exp.exit ], [ %76, %69 ]
  %80 = sub nsw i32 %2, %.029.lcssa
  %81 = trunc i32 %80 to i16
  %82 = sext i32 %65 to i64
  %83 = getelementptr inbounds i16, ptr %0, i64 %82
  store i16 %81, ptr %83, align 2, !tbaa !72
  ret void
}